target datalayout = "e-m:e-p270:32:32-p271:32:32-p272:64:64-i64:64-i128:128-f80:128-n8:16:32:64-S128"
target triple = "x86_64-pc-linux-gnu"

%struct.AVFilterGraph = type { ptr, ptr, i32, ptr, i32, i32, ptr, ptr, ptr }

; Function Attrs: nounwind uwtable
define i32 @avfilter_graph_parse2(ptr noundef %0, ptr noundef %1, ptr noundef %2, ptr noundef %3) #0 {
  %5 = alloca i32, align 4
  %6 = alloca ptr, align 8
  %7 = alloca ptr, align 8
  %8 = alloca ptr, align 8
  %9 = alloca ptr, align 8
  %10 = alloca ptr, align 8
  %11 = alloca i32, align 4
  %12 = alloca i32, align 4
  store ptr %0, ptr %6, align 8, !tbaa !19
  store ptr %1, ptr %7, align 8, !tbaa !21
  store ptr %2, ptr %8, align 8, !tbaa !4
  store ptr %3, ptr %9, align 8, !tbaa !4
  call void @llvm.lifetime.start.p0(i64 8, ptr %10) #7
  call void @llvm.lifetime.start.p0(i64 4, ptr %11) #7
  %13 = load ptr, ptr %6, align 8, !tbaa !19
  %14 = load ptr, ptr %7, align 8, !tbaa !21
  %15 = call i32 @avfilter_graph_segment_parse(ptr noundef %13, ptr noundef %14, i32 noundef 0, ptr noundef %10)
  store i32 %15, ptr %11, align 4, !tbaa !22
  %16 = load i32, ptr %11, align 4, !tbaa !22
  %17 = icmp slt i32 %16, 0
  br i1 %17, label %18, label %20

18:                                               ; preds = %4
  %19 = load i32, ptr %11, align 4, !tbaa !22
  store i32 %19, ptr %5, align 4
  store i32 1, ptr %12, align 4
  br label %45

20:                                               ; preds = %4
  %21 = load ptr, ptr %10, align 8, !tbaa !23
  %22 = load ptr, ptr %8, align 8, !tbaa !4
  %23 = load ptr, ptr %9, align 8, !tbaa !4
  %24 = call i32 @avfilter_graph_segment_apply(ptr noundef %21, i32 noundef 0, ptr noundef %22, ptr noundef %23)
  store i32 %24, ptr %11, align 4, !tbaa !22
  call void @avfilter_graph_segment_free(ptr noundef %10)
  %25 = load i32, ptr %11, align 4, !tbaa !22
  %26 = icmp slt i32 %25, 0
  br i1 %26, label %27, label %28

27:                                               ; preds = %20
  br label %29

28:                                               ; preds = %20
  store i32 0, ptr %5, align 4
  store i32 1, ptr %12, align 4
  br label %45

29:                                               ; preds = %27
  br label %30

30:                                               ; preds = %35, %29
  %31 = load ptr, ptr %6, align 8, !tbaa !19
  %32 = getelementptr inbounds nuw %struct.AVFilterGraph, ptr %31, i32 0, i32 2
  %33 = load i32, ptr %32, align 8, !tbaa !25
  %34 = icmp ne i32 %33, 0
  br i1 %34, label %35, label %41

35:                                               ; preds = %30
  %36 = load ptr, ptr %6, align 8, !tbaa !19
  %37 = getelementptr inbounds nuw %struct.AVFilterGraph, ptr %36, i32 0, i32 1
  %38 = load ptr, ptr %37, align 8, !tbaa !29
  %39 = getelementptr inbounds ptr, ptr %38, i64 0
  %40 = load ptr, ptr %39, align 8, !tbaa !30
  call void @avfilter_free(ptr noundef %40)
  br label %30, !llvm.loop !31

41:                                               ; preds = %30
  %42 = load ptr, ptr %6, align 8, !tbaa !19
  %43 = getelementptr inbounds nuw %struct.AVFilterGraph, ptr %42, i32 0, i32 1
  call void @av_freep(ptr noundef %43)
  %44 = load i32, ptr %11, align 4, !tbaa !22
  store i32 %44, ptr %5, align 4
  store i32 1, ptr %12, align 4
  br label %45

45:                                               ; preds = %41, %28, %18
  call void @llvm.lifetime.end.p0(i64 4, ptr %11) #7
  call void @llvm.lifetime.end.p0(i64 8, ptr %10) #7
  %46 = load i32, ptr %5, align 4
  ret i32 %46
}