; Function Attrs: nounwind uwtable
define range(i32 -2147483648, 1) i32 @avfilter_graph_parse2(ptr noundef %0, ptr noundef %1, ptr noundef %2, ptr noundef %3) local_unnamed_addr #0 {
  %5 = alloca ptr, align 8
  call void @llvm.lifetime.start.p0(i64 8, ptr nonnull %5) #7
  %6 = call i32 @avfilter_graph_segment_parse(ptr noundef %0, ptr noundef %1, i32 noundef 0, ptr noundef nonnull %5)
  %7 = icmp slt i32 %6, 0
  br i1 %7, label %20, label %8

8:                                                ; preds = %4
  %9 = load ptr, ptr %5, align 8, !tbaa !16
  %10 = tail call i32 @avfilter_graph_segment_apply(ptr noundef %9, i32 noundef 0, ptr noundef %2, ptr noundef %3)
  call void @avfilter_graph_segment_free(ptr noundef nonnull %5)
  %11 = icmp slt i32 %10, 0
  br i1 %11, label %.preheader, label %20

.preheader:                                       ; preds = %8
  %12 = getelementptr inbounds nuw i8, ptr %0, i64 16
  %13 = load i32, ptr %12, align 8, !tbaa !18
  %.not12 = icmp eq i32 %13, 0
  br i1 %.not12, label %._crit_edge, label %.lr.ph

.lr.ph:                                           ; preds = %.preheader
  %14 = getelementptr inbounds nuw i8, ptr %0, i64 8
  br label %15

15:                                               ; preds = %.lr.ph, %15
  %16 = load ptr, ptr %14, align 8, !tbaa !23
  %17 = load ptr, ptr %16, align 8, !tbaa !24
  call void @avfilter_free(ptr noundef %17) #7
  %18 = load i32, ptr %12, align 8, !tbaa !18
  %.not = icmp eq i32 %18, 0
  br i1 %.not, label %._crit_edge, label %15, !llvm.loop !25

._crit_edge:                                      ; preds = %15, %.preheader
  %19 = getelementptr inbounds nuw i8, ptr %0, i64 8
  call void @av_freep(ptr noundef nonnull %19) #7
  br label %20

20:                                               ; preds = %8, %4, %._crit_edge
  %.0 = phi i32 [ %10, %._crit_edge ], [ %6, %4 ], [ 0, %8 ]
  call void @llvm.lifetime.end.p0(i64 8, ptr nonnull %5) #7
  ret i32 %.0
}